; Function Attrs: nounwind uwtable
define internal noundef i32 @updateMaxmemory(ptr nocapture readnone %err) #2 {
entry:
  %0 = load i64, ptr getelementptr inbounds (%struct.redisServer, ptr @server, i64 0, i32 314), align 8
  %tobool.not = icmp eq i64 %0, 0
  br i1 %tobool.not, label %if.end6, label %if.then

if.then:                                          ; preds = %entry
  %call = tail call i64 @zmalloc_used_memory() #24
  %call1 = tail call i64 @freeMemoryGetNotCountedMemory() #24
  %sub = sub i64 %call, %call1
  %1 = load i64, ptr getelementptr inbounds (%struct.redisServer, ptr @server, i64 0, i32 314), align 8
  %cmp = icmp uge i64 %1, %sub
  %2 = load i32, ptr getelementptr inbounds (%struct.redisServer, ptr @server, i64 0, i32 156), align 8
  %cmp3 = icmp sgt i32 %2, 3
  %or.cond = select i1 %cmp, i1 true, i1 %cmp3
  br i1 %or.cond, label %if.end5, label %if.end

if.end:                                           ; preds = %if.then
  tail call void (i32, ptr, ...) @_serverLog(i32 noundef 3, ptr noundef nonnull @.str.396, i64 noundef %1, i64 noundef %sub) #24
  br label %if.end5

if.end5:                                          ; preds = %if.end, %if.then
  tail call void @startEvictionTimeProc() #24
  br label %if.end6

if.end6:                                          ; preds = %if.end5, %entry
  ret i32 1
}